ccopy_reg
_reconstructor
p0
(cgoogle.oauth2.credentials
Credentials
p1
c__builtin__
object
p2
Ntp3
Rp4
(dp5
S'_token_uri'
p6
Vhttps://oauth2.googleapis.com/token
p7
sS'_client_secret'
p8
VTwoiTYSpOh6YpcFwsF2s_DjU
p9
sS'_id_token'
p10
NsS'token'
p11
Vya29.GlvCBnG0oOuLSp0hWtDCRllGWXqII7uUlL6rKGniqCG0NY5Ox-fCxUOnhGoMSS_v1q1IEURf4z3Ezc-5qNUU5C5aojUerSchPVGmVfCX4Q6kuY2nQlK6QRpTi8Nu
p12
sS'_refresh_token'
p13
V1/UMsXEa0FBXlXe6yqT0gsmDCLuW-52Dyg0ANILtT6cWA
p14
sS'_scopes'
p15
(lp16
S'https://www.googleapis.com/auth/spreadsheets.readonly'
p17
asS'_client_id'
p18
V605424799546-e40nukm5q16one563n34ro2jab44ugp2.apps.googleusercontent.com
p19
sS'expiry'
p20
cdatetime
datetime
p21
(S'\x07\xe3\x03\x03\x17&\x06\x01C+'
p22
tp23
Rp24
sb.